(dp1
S'geo_json'
p2
(dp3
S'length'
p4
S'99999999'
p5
sS'unique'
p6
I00
sS'sortable'
p7
I3
sS'sql'
p8
S'TEXT'
p9
sS'notnull'
p10
I00
sS'type'
p11
S'text'
p12
ssS'wdpaid'
p13
(dp14
g4
I512
sg6
I00
sg7
I2
sg8
S'INTEGER'
p15
sg10
I00
sg11
S'integer'
p16
ssS'id'
p17
(dp18
g4
I512
sg6
I00
sg7
I1
sg8
S'INTEGER PRIMARY KEY AUTOINCREMENT'
p19
sg10
I00
sg11
S'id'
p20
ss.